target datalayout = "e-m:e-p270:32:32-p271:32:32-p272:64:64-i64:64-i128:128-f80:128-n8:16:32:64-S128"
target triple = "x86_64-pc-linux-gnu"

%struct.dict = type { ptr, [2 x ptr], [2 x i64], i64, i16, [2 x i8], i16, [0 x ptr] }
%struct.dictEntry = type { ptr, %union.anon, ptr }
%union.anon = type { ptr }
%struct.dictEntryNoValue = type { ptr, ptr }

; Function Attrs: inlinehint nounwind uwtable
define internal i32 @entryIsKey(ptr noundef %0) #11 {
  %2 = alloca ptr, align 8
  store ptr %0, ptr %2, align 8, !tbaa !36
  %3 = load ptr, ptr %2, align 8, !tbaa !36
  %4 = ptrtoint ptr %3 to i64
  %5 = and i64 %4, 3
  %6 = trunc i64 %5 to i32
  ret i32 %6
}

; Function Attrs: inlinehint nounwind uwtable
define internal ptr @decodeEntryNoValue(ptr noundef %0) #11 {
  %2 = alloca ptr, align 8
  store ptr %0, ptr %2, align 8, !tbaa !36
  %3 = load ptr, ptr %2, align 8, !tbaa !36
  %4 = call ptr @decodeMaskedPtr(ptr noundef %3)
  ret ptr %4
}

; Function Attrs: inlinehint nounwind uwtable
define internal i32 @entryIsNoValue(ptr noundef %0) #11 {
  %2 = alloca ptr, align 8
  store ptr %0, ptr %2, align 8, !tbaa !36
  %3 = load ptr, ptr %2, align 8, !tbaa !36
  %4 = ptrtoint ptr %3 to i64
  %5 = and i64 %4, 7
  %6 = icmp eq i64 %5, 4
  %7 = zext i1 %6 to i32
  ret i32 %7
}

; Function Attrs: inlinehint nounwind uwtable
define internal ptr @decodeMaskedPtr(ptr noundef %0) #11 {
  %2 = alloca ptr, align 8
  store ptr %0, ptr %2, align 8, !tbaa !36
  %3 = load ptr, ptr %2, align 8, !tbaa !36
  %4 = ptrtoint ptr %3 to i64
  %5 = and i64 %4, -8
  %6 = inttoptr i64 %5 to ptr
  ret ptr %6
}

; Function Attrs: nounwind uwtable
define internal ptr @dictGetNext(ptr noundef %0) #0 {
  %2 = alloca ptr, align 8
  %3 = alloca ptr, align 8
  store ptr %0, ptr %3, align 8, !tbaa !36
  %4 = load ptr, ptr %3, align 8, !tbaa !36
  %5 = call i32 @entryIsKey(ptr noundef %4)
  %6 = icmp ne i32 %5, 0
  br i1 %6, label %7, label %8

7:                                                ; preds = %1
  store ptr null, ptr %2, align 8
  br label %21

8:                                                ; preds = %1
  %9 = load ptr, ptr %3, align 8, !tbaa !36
  %10 = call i32 @entryIsNoValue(ptr noundef %9)
  %11 = icmp ne i32 %10, 0
  br i1 %11, label %12, label %17

12:                                               ; preds = %8
  %13 = load ptr, ptr %3, align 8, !tbaa !36
  %14 = call ptr @decodeEntryNoValue(ptr noundef %13)
  %15 = getelementptr inbounds nuw %struct.dictEntryNoValue, ptr %14, i32 0, i32 1
  %16 = load ptr, ptr %15, align 8, !tbaa !56
  store ptr %16, ptr %2, align 8
  br label %21

17:                                               ; preds = %8
  %18 = load ptr, ptr %3, align 8, !tbaa !36
  %19 = getelementptr inbounds nuw %struct.dictEntry, ptr %18, i32 0, i32 2
  %20 = load ptr, ptr %19, align 8, !tbaa !53
  store ptr %20, ptr %2, align 8
  br label %21

21:                                               ; preds = %17, %12, %7
  %22 = load ptr, ptr %2, align 8
  ret ptr %22
}

; Function Attrs: nounwind uwtable
define dso_local ptr @dictGetKey(ptr noundef %0) #0 {
  %2 = alloca ptr, align 8
  %3 = alloca ptr, align 8
  store ptr %0, ptr %3, align 8, !tbaa !36
  %4 = load ptr, ptr %3, align 8, !tbaa !36
  %5 = ptrtoint ptr %4 to i64
  %6 = and i64 %5, 1
  %7 = icmp ne i64 %6, 0
  br i1 %7, label %8, label %10

8:                                                ; preds = %1
  %9 = load ptr, ptr %3, align 8, !tbaa !36
  store ptr %9, ptr %2, align 8
  br label %31

10:                                               ; preds = %1
  %11 = load ptr, ptr %3, align 8, !tbaa !36
  %12 = ptrtoint ptr %11 to i64
  %13 = and i64 %12, 2
  %14 = icmp ne i64 %13, 0
  br i1 %14, label %15, label %18

15:                                               ; preds = %10
  %16 = load ptr, ptr %3, align 8, !tbaa !36
  %17 = call ptr @decodeMaskedPtr(ptr noundef %16)
  store ptr %17, ptr %2, align 8
  br label %31

18:                                               ; preds = %10
  %19 = load ptr, ptr %3, align 8, !tbaa !36
  %20 = call i32 @entryIsNoValue(ptr noundef %19)
  %21 = icmp ne i32 %20, 0
  br i1 %21, label %22, label %27

22:                                               ; preds = %18
  %23 = load ptr, ptr %3, align 8, !tbaa !36
  %24 = call ptr @decodeEntryNoValue(ptr noundef %23)
  %25 = getelementptr inbounds nuw %struct.dictEntryNoValue, ptr %24, i32 0, i32 0
  %26 = load ptr, ptr %25, align 8, !tbaa !54
  store ptr %26, ptr %2, align 8
  br label %31

27:                                               ; preds = %18
  %28 = load ptr, ptr %3, align 8, !tbaa !36
  %29 = getelementptr inbounds nuw %struct.dictEntry, ptr %28, i32 0, i32 0
  %30 = load ptr, ptr %29, align 8, !tbaa !51
  store ptr %30, ptr %2, align 8
  br label %31

31:                                               ; preds = %27, %22, %15, %8
  %32 = load ptr, ptr %2, align 8
  ret ptr %32
}

; Function Attrs: nounwind uwtable
define dso_local ptr @dictFindByHashAndPtr(ptr noundef %0, ptr noundef %1, i64 noundef %2) #0 {
  %4 = alloca ptr, align 8
  %5 = alloca ptr, align 8
  %6 = alloca ptr, align 8
  %7 = alloca i64, align 8
  %8 = alloca ptr, align 8
  %9 = alloca i64, align 8
  %10 = alloca i64, align 8
  %11 = alloca i32, align 4
  store ptr %0, ptr %5, align 8, !tbaa !18
  store ptr %1, ptr %6, align 8, !tbaa !10
  store i64 %2, ptr %7, align 8, !tbaa !11
  call void @llvm.lifetime.start.p0(i64 8, ptr %8) #14
  call void @llvm.lifetime.start.p0(i64 8, ptr %9) #14
  call void @llvm.lifetime.start.p0(i64 8, ptr %10) #14
  %12 = load ptr, ptr %5, align 8, !tbaa !18
  %13 = getelementptr inbounds nuw %struct.dict, ptr %12, i32 0, i32 2
  %14 = getelementptr inbounds [2 x i64], ptr %13, i64 0, i64 0
  %15 = load i64, ptr %14, align 8, !tbaa !11
  %16 = load ptr, ptr %5, align 8, !tbaa !18
  %17 = getelementptr inbounds nuw %struct.dict, ptr %16, i32 0, i32 2
  %18 = getelementptr inbounds [2 x i64], ptr %17, i64 0, i64 1
  %19 = load i64, ptr %18, align 8, !tbaa !11
  %20 = add i64 %15, %19
  %21 = icmp eq i64 %20, 0
  br i1 %21, label %22, label %23

22:                                               ; preds = %3
  store ptr null, ptr %4, align 8
  store i32 1, ptr %11, align 4
  br label %103

23:                                               ; preds = %3
  store i64 0, ptr %10, align 8, !tbaa !11
  br label %24

24:                                               ; preds = %99, %23
  %25 = load i64, ptr %10, align 8, !tbaa !11
  %26 = icmp ule i64 %25, 1
  br i1 %26, label %27, label %102

27:                                               ; preds = %24
  %28 = load i64, ptr %7, align 8, !tbaa !11
  %29 = load ptr, ptr %5, align 8, !tbaa !18
  %30 = getelementptr inbounds nuw %struct.dict, ptr %29, i32 0, i32 5
  %31 = load i64, ptr %10, align 8, !tbaa !11
  %32 = getelementptr inbounds nuw [2 x i8], ptr %30, i64 0, i64 %31
  %33 = load i8, ptr %32, align 1, !tbaa !25
  %34 = sext i8 %33 to i32
  %35 = icmp eq i32 %34, -1
  br i1 %35, label %36, label %37

36:                                               ; preds = %27
  br label %58

37:                                               ; preds = %27
  %38 = load ptr, ptr %5, align 8, !tbaa !18
  %39 = getelementptr inbounds nuw %struct.dict, ptr %38, i32 0, i32 5
  %40 = load i64, ptr %10, align 8, !tbaa !11
  %41 = getelementptr inbounds nuw [2 x i8], ptr %39, i64 0, i64 %40
  %42 = load i8, ptr %41, align 1, !tbaa !25
  %43 = sext i8 %42 to i32
  %44 = icmp eq i32 %43, -1
  br i1 %44, label %45, label %46

45:                                               ; preds = %37
  br label %55

46:                                               ; preds = %37
  %47 = load ptr, ptr %5, align 8, !tbaa !18
  %48 = getelementptr inbounds nuw %struct.dict, ptr %47, i32 0, i32 5
  %49 = load i64, ptr %10, align 8, !tbaa !11
  %50 = getelementptr inbounds nuw [2 x i8], ptr %48, i64 0, i64 %49
  %51 = load i8, ptr %50, align 1, !tbaa !25
  %52 = sext i8 %51 to i32
  %53 = zext i32 %52 to i64
  %54 = shl i64 1, %53
  br label %55

55:                                               ; preds = %46, %45
  %56 = phi i64 [ 0, %45 ], [ %54, %46 ]
  %57 = sub i64 %56, 1
  br label %58

58:                                               ; preds = %55, %36
  %59 = phi i64 [ 0, %36 ], [ %57, %55 ]
  %60 = and i64 %28, %59
  store i64 %60, ptr %9, align 8, !tbaa !11
  %61 = load i64, ptr %10, align 8, !tbaa !11
  %62 = icmp eq i64 %61, 0
  br i1 %62, label %63, label %70

63:                                               ; preds = %58
  %64 = load i64, ptr %9, align 8, !tbaa !11
  %65 = load ptr, ptr %5, align 8, !tbaa !18
  %66 = getelementptr inbounds nuw %struct.dict, ptr %65, i32 0, i32 3
  %67 = load i64, ptr %66, align 8, !tbaa !11
  %68 = icmp slt i64 %64, %67
  br i1 %68, label %69, label %70

69:                                               ; preds = %63
  br label %99

70:                                               ; preds = %63, %58
  %71 = load ptr, ptr %5, align 8, !tbaa !18
  %72 = getelementptr inbounds nuw %struct.dict, ptr %71, i32 0, i32 1
  %73 = load i64, ptr %10, align 8, !tbaa !11
  %74 = getelementptr inbounds nuw [2 x ptr], ptr %72, i64 0, i64 %73
  %75 = load ptr, ptr %74, align 8, !tbaa !30
  %76 = load i64, ptr %9, align 8, !tbaa !11
  %77 = getelementptr inbounds nuw ptr, ptr %75, i64 %76
  %78 = load ptr, ptr %77, align 8, !tbaa !36
  store ptr %78, ptr %8, align 8, !tbaa !36
  br label %79

79:                                               ; preds = %89, %70
  %80 = load ptr, ptr %8, align 8, !tbaa !36
  %81 = icmp ne ptr %80, null
  br i1 %81, label %82, label %92

82:                                               ; preds = %79
  %83 = load ptr, ptr %6, align 8, !tbaa !10
  %84 = load ptr, ptr %8, align 8, !tbaa !36
  %85 = call ptr @dictGetKey(ptr noundef %84)
  %86 = icmp eq ptr %83, %85
  br i1 %86, label %87, label %89

87:                                               ; preds = %82
  %88 = load ptr, ptr %8, align 8, !tbaa !36
  store ptr %88, ptr %4, align 8
  store i32 1, ptr %11, align 4
  br label %103

89:                                               ; preds = %82
  %90 = load ptr, ptr %8, align 8, !tbaa !36
  %91 = call ptr @dictGetNext(ptr noundef %90)
  store ptr %91, ptr %8, align 8, !tbaa !36
  br label %79, !llvm.loop !107

92:                                               ; preds = %79
  %93 = load ptr, ptr %5, align 8, !tbaa !18
  %94 = getelementptr inbounds nuw %struct.dict, ptr %93, i32 0, i32 3
  %95 = load i64, ptr %94, align 8, !tbaa !11
  %96 = icmp ne i64 %95, -1
  br i1 %96, label %98, label %97

97:                                               ; preds = %92
  store ptr null, ptr %4, align 8
  store i32 1, ptr %11, align 4
  br label %103

98:                                               ; preds = %92
  br label %99

99:                                               ; preds = %98, %69
  %100 = load i64, ptr %10, align 8, !tbaa !11
  %101 = add i64 %100, 1
  store i64 %101, ptr %10, align 8, !tbaa !11
  br label %24, !llvm.loop !108

102:                                              ; preds = %24
  store ptr null, ptr %4, align 8
  store i32 1, ptr %11, align 4
  br label %103

103:                                              ; preds = %102, %97, %87, %22
  call void @llvm.lifetime.end.p0(i64 8, ptr %10) #14
  call void @llvm.lifetime.end.p0(i64 8, ptr %9) #14
  call void @llvm.lifetime.end.p0(i64 8, ptr %8) #14
  %104 = load ptr, ptr %4, align 8
  ret ptr %104
}