; Function Attrs: nofree norecurse nosync nounwind memory(read, inaccessiblemem: none) uwtable
define dso_local ptr @dictFindByHashAndPtr(ptr noundef readonly captures(none) %0, ptr noundef readnone captures(address) %1, i64 noundef %2) local_unnamed_addr #20 {
  %4 = getelementptr inbounds nuw i8, ptr %0, i64 24
  %5 = load i64, ptr %4, align 8, !tbaa !14
  %6 = getelementptr inbounds nuw i8, ptr %0, i64 32
  %7 = load i64, ptr %6, align 8, !tbaa !14
  %8 = sub i64 0, %7
  %9 = icmp eq i64 %5, %8
  br i1 %9, label %.loopexit, label %.preheader

.preheader:                                       ; preds = %3
  %10 = getelementptr inbounds nuw i8, ptr %0, i64 50
  %11 = getelementptr inbounds nuw i8, ptr %0, i64 40
  %12 = getelementptr inbounds nuw i8, ptr %0, i64 8
  br label %.backedge

.backedge:                                        ; preds = %.backedge.backedge, %.preheader
  %13 = phi i1 [ true, %.preheader ], [ false, %.backedge.backedge ]
  %.033 = phi i64 [ 0, %.preheader ], [ 1, %.backedge.backedge ]
  %14 = getelementptr inbounds nuw [2 x i8], ptr %10, i64 0, i64 %.033
  %15 = load i8, ptr %14, align 1, !tbaa !13
  %16 = sext i8 %15 to i64
  %17 = icmp eq i8 %15, -1
  %18 = and i64 %16, 4294967295
  %notmask = shl nsw i64 -1, %18
  %19 = xor i64 %notmask, -1
  %20 = select i1 %17, i64 0, i64 %19
  %21 = and i64 %20, %2
  br i1 %13, label %22, label %25

22:                                               ; preds = %.backedge
  %23 = load i64, ptr %11, align 8, !tbaa !14
  %24 = icmp slt i64 %21, %23
  br i1 %24, label %.backedge.backedge, label %25

.backedge.backedge:                               ; preds = %22, %._crit_edge
  br label %.backedge, !llvm.loop !95

25:                                               ; preds = %22, %.backedge
  %26 = getelementptr inbounds nuw [2 x ptr], ptr %12, i64 0, i64 %.033
  %27 = load ptr, ptr %26, align 8, !tbaa !11
  %28 = getelementptr inbounds nuw ptr, ptr %27, i64 %21
  %29 = load ptr, ptr %28, align 8, !tbaa !31
  %.not31 = icmp eq ptr %29, null
  br i1 %.not31, label %._crit_edge, label %.lr.ph

.lr.ph:                                           ; preds = %25, %dictGetNext.exit
  %.02432 = phi ptr [ %.0.i28, %dictGetNext.exit ], [ %29, %25 ]
  %30 = ptrtoint ptr %.02432 to i64
  %31 = and i64 %30, 1
  %.not.i = icmp eq i64 %31, 0
  br i1 %.not.i, label %32, label %dictGetKey.exit

32:                                               ; preds = %.lr.ph
  %33 = and i64 %30, 2
  %.not8.i = icmp eq i64 %33, 0
  br i1 %.not8.i, label %37, label %34

34:                                               ; preds = %32
  %35 = and i64 %30, -8
  %36 = inttoptr i64 %35 to ptr
  br label %dictGetKey.exit

37:                                               ; preds = %32
  %38 = and i64 %30, 4
  %.not9.i = icmp eq i64 %38, 0
  br i1 %.not9.i, label %43, label %39

39:                                               ; preds = %37
  %40 = and i64 %30, -8
  %41 = inttoptr i64 %40 to ptr
  %42 = load ptr, ptr %41, align 8, !tbaa !39
  br label %dictGetKey.exit

43:                                               ; preds = %37
  %44 = load ptr, ptr %.02432, align 8, !tbaa !40
  br label %dictGetKey.exit

dictGetKey.exit:                                  ; preds = %.lr.ph, %34, %39, %43
  %.0.i = phi ptr [ %36, %34 ], [ %42, %39 ], [ %44, %43 ], [ %.02432, %.lr.ph ]
  %45 = icmp eq ptr %1, %.0.i
  br i1 %45, label %.loopexit, label %46

46:                                               ; preds = %dictGetKey.exit
  %47 = and i64 %30, 3
  %.not.i27 = icmp eq i64 %47, 0
  br i1 %.not.i27, label %dictGetNext.exit, label %._crit_edge

dictGetNext.exit:                                 ; preds = %46
  %48 = and i64 %30, 4
  %.not5.i = icmp eq i64 %48, 0
  %49 = and i64 %30, -8
  %50 = inttoptr i64 %49 to ptr
  %51 = getelementptr inbounds nuw i8, ptr %50, i64 8
  %52 = getelementptr inbounds nuw i8, ptr %.02432, i64 16
  %.0.i28.in = select i1 %.not5.i, ptr %52, ptr %51
  %.0.i28 = load ptr, ptr %.0.i28.in, align 8, !tbaa !31
  %.not = icmp eq ptr %.0.i28, null
  br i1 %.not, label %._crit_edge, label %.lr.ph, !llvm.loop !96

._crit_edge:                                      ; preds = %46, %dictGetNext.exit, %25
  %53 = load i64, ptr %11, align 8, !tbaa !14
  %.not26 = icmp ne i64 %53, -1
  %or.cond = and i1 %.not26, %13
  br i1 %or.cond, label %.backedge.backedge, label %.loopexit

.loopexit:                                        ; preds = %._crit_edge, %dictGetKey.exit, %3
  %.023 = phi ptr [ null, %3 ], [ %.02432, %dictGetKey.exit ], [ null, %._crit_edge ]
  ret ptr %.023
}